target datalayout = "e-m:e-p270:32:32-p271:32:32-p272:64:64-i64:64-i128:128-f80:128-n8:16:32:64-S128"
target triple = "x86_64-pc-linux-gnu"

%struct.txt_db_st = type { i32, ptr, ptr, ptr, i64, i64, i64, ptr }

; Function Attrs: inlinehint nounwind uwtable
define internal i32 @sk_OPENSSL_PSTRING_push(ptr noundef %0, ptr noundef %1) #3 {
  %3 = alloca ptr, align 8
  %4 = alloca ptr, align 8
  store ptr %0, ptr %3, align 8, !tbaa !35
  store ptr %1, ptr %4, align 8, !tbaa !33
  %5 = load ptr, ptr %3, align 8, !tbaa !35
  %6 = load ptr, ptr %4, align 8, !tbaa !33
  %7 = call i32 @OPENSSL_sk_push(ptr noundef %5, ptr noundef %6)
  ret i32 %7
}

; Function Attrs: inlinehint nounwind uwtable
define internal ptr @ossl_check_OPENSSL_STRING_lh_plain_type(ptr noundef %0) #3 {
  %2 = alloca ptr, align 8
  store ptr %0, ptr %2, align 8, !tbaa !33
  %3 = load ptr, ptr %2, align 8, !tbaa !33
  ret ptr %3
}

; Function Attrs: inlinehint nounwind uwtable
define internal ptr @ossl_check_const_OPENSSL_STRING_lh_plain_type(ptr noundef %0) #3 {
  %2 = alloca ptr, align 8
  store ptr %0, ptr %2, align 8, !tbaa !33
  %3 = load ptr, ptr %2, align 8, !tbaa !33
  ret ptr %3
}

; Function Attrs: inlinehint nounwind uwtable
define internal ptr @ossl_check_OPENSSL_STRING_lh_type(ptr noundef %0) #3 {
  %2 = alloca ptr, align 8
  store ptr %0, ptr %2, align 8, !tbaa !23
  %3 = load ptr, ptr %2, align 8, !tbaa !23
  ret ptr %3
}

; Function Attrs: nounwind uwtable
define i32 @TXT_DB_insert(ptr noundef %0, ptr noundef %1) #0 {
  %3 = alloca i32, align 4
  %4 = alloca ptr, align 8
  %5 = alloca ptr, align 8
  %6 = alloca i32, align 4
  %7 = alloca ptr, align 8
  %8 = alloca i32, align 4
  store ptr %0, ptr %4, align 8, !tbaa !10
  store ptr %1, ptr %5, align 8, !tbaa !33
  call void @llvm.lifetime.start.p0(i64 4, ptr %6) #5
  call void @llvm.lifetime.start.p0(i64 8, ptr %7) #5
  store i32 0, ptr %6, align 4, !tbaa !8
  br label %9

9:                                                ; preds = %71, %2
  %10 = load i32, ptr %6, align 4, !tbaa !8
  %11 = load ptr, ptr %4, align 8, !tbaa !10
  %12 = getelementptr inbounds nuw %struct.txt_db_st, ptr %11, i32 0, i32 0
  %13 = load i32, ptr %12, align 8, !tbaa !14
  %14 = icmp slt i32 %10, %13
  br i1 %14, label %15, label %74

15:                                               ; preds = %9
  %16 = load ptr, ptr %4, align 8, !tbaa !10
  %17 = getelementptr inbounds nuw %struct.txt_db_st, ptr %16, i32 0, i32 2
  %18 = load ptr, ptr %17, align 8, !tbaa !20
  %19 = load i32, ptr %6, align 4, !tbaa !8
  %20 = sext i32 %19 to i64
  %21 = getelementptr inbounds ptr, ptr %18, i64 %20
  %22 = load ptr, ptr %21, align 8, !tbaa !23
  %23 = icmp ne ptr %22, null
  br i1 %23, label %24, label %70

24:                                               ; preds = %15
  %25 = load ptr, ptr %4, align 8, !tbaa !10
  %26 = getelementptr inbounds nuw %struct.txt_db_st, ptr %25, i32 0, i32 3
  %27 = load ptr, ptr %26, align 8, !tbaa !21
  %28 = load i32, ptr %6, align 4, !tbaa !8
  %29 = sext i32 %28 to i64
  %30 = getelementptr inbounds ptr, ptr %27, i64 %29
  %31 = load ptr, ptr %30, align 8, !tbaa !25
  %32 = icmp ne ptr %31, null
  br i1 %32, label %33, label %45

33:                                               ; preds = %24
  %34 = load ptr, ptr %4, align 8, !tbaa !10
  %35 = getelementptr inbounds nuw %struct.txt_db_st, ptr %34, i32 0, i32 3
  %36 = load ptr, ptr %35, align 8, !tbaa !21
  %37 = load i32, ptr %6, align 4, !tbaa !8
  %38 = sext i32 %37 to i64
  %39 = getelementptr inbounds ptr, ptr %36, i64 %38
  %40 = load ptr, ptr %39, align 8, !tbaa !25
  %41 = load ptr, ptr %5, align 8, !tbaa !33
  %42 = call i32 %40(ptr noundef %41)
  %43 = icmp eq i32 %42, 0
  br i1 %43, label %44, label %45

44:                                               ; preds = %33
  br label %71

45:                                               ; preds = %33, %24
  %46 = load ptr, ptr %4, align 8, !tbaa !10
  %47 = getelementptr inbounds nuw %struct.txt_db_st, ptr %46, i32 0, i32 2
  %48 = load ptr, ptr %47, align 8, !tbaa !20
  %49 = load i32, ptr %6, align 4, !tbaa !8
  %50 = sext i32 %49 to i64
  %51 = getelementptr inbounds ptr, ptr %48, i64 %50
  %52 = load ptr, ptr %51, align 8, !tbaa !23
  %53 = call ptr @ossl_check_OPENSSL_STRING_lh_type(ptr noundef %52)
  %54 = load ptr, ptr %5, align 8, !tbaa !33
  %55 = call ptr @ossl_check_const_OPENSSL_STRING_lh_plain_type(ptr noundef %54)
  %56 = call ptr @OPENSSL_LH_retrieve(ptr noundef %53, ptr noundef %55)
  store ptr %56, ptr %7, align 8, !tbaa !33
  %57 = load ptr, ptr %7, align 8, !tbaa !33
  %58 = icmp ne ptr %57, null
  br i1 %58, label %59, label %69

59:                                               ; preds = %45
  %60 = load ptr, ptr %4, align 8, !tbaa !10
  %61 = getelementptr inbounds nuw %struct.txt_db_st, ptr %60, i32 0, i32 4
  store i64 2, ptr %61, align 8, !tbaa !34
  %62 = load i32, ptr %6, align 4, !tbaa !8
  %63 = sext i32 %62 to i64
  %64 = load ptr, ptr %4, align 8, !tbaa !10
  %65 = getelementptr inbounds nuw %struct.txt_db_st, ptr %64, i32 0, i32 5
  store i64 %63, ptr %65, align 8, !tbaa !36
  %66 = load ptr, ptr %7, align 8, !tbaa !33
  %67 = load ptr, ptr %4, align 8, !tbaa !10
  %68 = getelementptr inbounds nuw %struct.txt_db_st, ptr %67, i32 0, i32 7
  store ptr %66, ptr %68, align 8, !tbaa !43
  br label %201

69:                                               ; preds = %45
  br label %70

70:                                               ; preds = %69, %15
  br label %71

71:                                               ; preds = %70, %44
  %72 = load i32, ptr %6, align 4, !tbaa !8
  %73 = add nsw i32 %72, 1
  store i32 %73, ptr %6, align 4, !tbaa !8
  br label %9, !llvm.loop !44

74:                                               ; preds = %9
  store i32 0, ptr %6, align 4, !tbaa !8
  br label %75

75:                                               ; preds = %138, %74
  %76 = load i32, ptr %6, align 4, !tbaa !8
  %77 = load ptr, ptr %4, align 8, !tbaa !10
  %78 = getelementptr inbounds nuw %struct.txt_db_st, ptr %77, i32 0, i32 0
  %79 = load i32, ptr %78, align 8, !tbaa !14
  %80 = icmp slt i32 %76, %79
  br i1 %80, label %81, label %141

81:                                               ; preds = %75
  %82 = load ptr, ptr %4, align 8, !tbaa !10
  %83 = getelementptr inbounds nuw %struct.txt_db_st, ptr %82, i32 0, i32 2
  %84 = load ptr, ptr %83, align 8, !tbaa !20
  %85 = load i32, ptr %6, align 4, !tbaa !8
  %86 = sext i32 %85 to i64
  %87 = getelementptr inbounds ptr, ptr %84, i64 %86
  %88 = load ptr, ptr %87, align 8, !tbaa !23
  %89 = icmp ne ptr %88, null
  br i1 %89, label %90, label %137

90:                                               ; preds = %81
  %91 = load ptr, ptr %4, align 8, !tbaa !10
  %92 = getelementptr inbounds nuw %struct.txt_db_st, ptr %91, i32 0, i32 3
  %93 = load ptr, ptr %92, align 8, !tbaa !21
  %94 = load i32, ptr %6, align 4, !tbaa !8
  %95 = sext i32 %94 to i64
  %96 = getelementptr inbounds ptr, ptr %93, i64 %95
  %97 = load ptr, ptr %96, align 8, !tbaa !25
  %98 = icmp ne ptr %97, null
  br i1 %98, label %99, label %111

99:                                               ; preds = %90
  %100 = load ptr, ptr %4, align 8, !tbaa !10
  %101 = getelementptr inbounds nuw %struct.txt_db_st, ptr %100, i32 0, i32 3
  %102 = load ptr, ptr %101, align 8, !tbaa !21
  %103 = load i32, ptr %6, align 4, !tbaa !8
  %104 = sext i32 %103 to i64
  %105 = getelementptr inbounds ptr, ptr %102, i64 %104
  %106 = load ptr, ptr %105, align 8, !tbaa !25
  %107 = load ptr, ptr %5, align 8, !tbaa !33
  %108 = call i32 %106(ptr noundef %107)
  %109 = icmp eq i32 %108, 0
  br i1 %109, label %110, label %111

110:                                              ; preds = %99
  br label %138

111:                                              ; preds = %99, %90
  %112 = load ptr, ptr %4, align 8, !tbaa !10
  %113 = getelementptr inbounds nuw %struct.txt_db_st, ptr %112, i32 0, i32 2
  %114 = load ptr, ptr %113, align 8, !tbaa !20
  %115 = load i32, ptr %6, align 4, !tbaa !8
  %116 = sext i32 %115 to i64
  %117 = getelementptr inbounds ptr, ptr %114, i64 %116
  %118 = load ptr, ptr %117, align 8, !tbaa !23
  %119 = call ptr @ossl_check_OPENSSL_STRING_lh_type(ptr noundef %118)
  %120 = load ptr, ptr %5, align 8, !tbaa !33
  %121 = call ptr @ossl_check_OPENSSL_STRING_lh_plain_type(ptr noundef %120)
  %122 = call ptr @OPENSSL_LH_insert(ptr noundef %119, ptr noundef %121)
  %123 = load ptr, ptr %4, align 8, !tbaa !10
  %124 = getelementptr inbounds nuw %struct.txt_db_st, ptr %123, i32 0, i32 2
  %125 = load ptr, ptr %124, align 8, !tbaa !20
  %126 = load i32, ptr %6, align 4, !tbaa !8
  %127 = sext i32 %126 to i64
  %128 = getelementptr inbounds ptr, ptr %125, i64 %127
  %129 = load ptr, ptr %128, align 8, !tbaa !23
  %130 = call ptr @ossl_check_OPENSSL_STRING_lh_type(ptr noundef %129)
  %131 = load ptr, ptr %5, align 8, !tbaa !33
  %132 = call ptr @ossl_check_const_OPENSSL_STRING_lh_plain_type(ptr noundef %131)
  %133 = call ptr @OPENSSL_LH_retrieve(ptr noundef %130, ptr noundef %132)
  %134 = icmp eq ptr %133, null
  br i1 %134, label %135, label %136

135:                                              ; preds = %111
  br label %150

136:                                              ; preds = %111
  br label %137

137:                                              ; preds = %136, %81
  br label %138

138:                                              ; preds = %137, %110
  %139 = load i32, ptr %6, align 4, !tbaa !8
  %140 = add nsw i32 %139, 1
  store i32 %140, ptr %6, align 4, !tbaa !8
  br label %75, !llvm.loop !45

141:                                              ; preds = %75
  %142 = load ptr, ptr %4, align 8, !tbaa !10
  %143 = getelementptr inbounds nuw %struct.txt_db_st, ptr %142, i32 0, i32 1
  %144 = load ptr, ptr %143, align 8, !tbaa !22
  %145 = load ptr, ptr %5, align 8, !tbaa !33
  %146 = call i32 @sk_OPENSSL_PSTRING_push(ptr noundef %144, ptr noundef %145)
  %147 = icmp ne i32 %146, 0
  br i1 %147, label %149, label %148

148:                                              ; preds = %141
  br label %150

149:                                              ; preds = %141
  store i32 1, ptr %3, align 4
  store i32 1, ptr %8, align 4
  br label %202

150:                                              ; preds = %148, %135
  %151 = load ptr, ptr %4, align 8, !tbaa !10
  %152 = getelementptr inbounds nuw %struct.txt_db_st, ptr %151, i32 0, i32 4
  store i64 1, ptr %152, align 8, !tbaa !34
  br label %153

153:                                              ; preds = %199, %186, %150
  %154 = load i32, ptr %6, align 4, !tbaa !8
  %155 = add nsw i32 %154, -1
  store i32 %155, ptr %6, align 4, !tbaa !8
  %156 = icmp sgt i32 %154, 0
  br i1 %156, label %157, label %200

157:                                              ; preds = %153
  %158 = load ptr, ptr %4, align 8, !tbaa !10
  %159 = getelementptr inbounds nuw %struct.txt_db_st, ptr %158, i32 0, i32 2
  %160 = load ptr, ptr %159, align 8, !tbaa !20
  %161 = load i32, ptr %6, align 4, !tbaa !8
  %162 = sext i32 %161 to i64
  %163 = getelementptr inbounds ptr, ptr %160, i64 %162
  %164 = load ptr, ptr %163, align 8, !tbaa !23
  %165 = icmp ne ptr %164, null
  br i1 %165, label %166, label %199

166:                                              ; preds = %157
  %167 = load ptr, ptr %4, align 8, !tbaa !10
  %168 = getelementptr inbounds nuw %struct.txt_db_st, ptr %167, i32 0, i32 3
  %169 = load ptr, ptr %168, align 8, !tbaa !21
  %170 = load i32, ptr %6, align 4, !tbaa !8
  %171 = sext i32 %170 to i64
  %172 = getelementptr inbounds ptr, ptr %169, i64 %171
  %173 = load ptr, ptr %172, align 8, !tbaa !25
  %174 = icmp ne ptr %173, null
  br i1 %174, label %175, label %187

175:                                              ; preds = %166
  %176 = load ptr, ptr %4, align 8, !tbaa !10
  %177 = getelementptr inbounds nuw %struct.txt_db_st, ptr %176, i32 0, i32 3
  %178 = load ptr, ptr %177, align 8, !tbaa !21
  %179 = load i32, ptr %6, align 4, !tbaa !8
  %180 = sext i32 %179 to i64
  %181 = getelementptr inbounds ptr, ptr %178, i64 %180
  %182 = load ptr, ptr %181, align 8, !tbaa !25
  %183 = load ptr, ptr %5, align 8, !tbaa !33
  %184 = call i32 %182(ptr noundef %183)
  %185 = icmp eq i32 %184, 0
  br i1 %185, label %186, label %187

186:                                              ; preds = %175
  br label %153, !llvm.loop !46

187:                                              ; preds = %175, %166
  %188 = load ptr, ptr %4, align 8, !tbaa !10
  %189 = getelementptr inbounds nuw %struct.txt_db_st, ptr %188, i32 0, i32 2
  %190 = load ptr, ptr %189, align 8, !tbaa !20
  %191 = load i32, ptr %6, align 4, !tbaa !8
  %192 = sext i32 %191 to i64
  %193 = getelementptr inbounds ptr, ptr %190, i64 %192
  %194 = load ptr, ptr %193, align 8, !tbaa !23
  %195 = call ptr @ossl_check_OPENSSL_STRING_lh_type(ptr noundef %194)
  %196 = load ptr, ptr %5, align 8, !tbaa !33
  %197 = call ptr @ossl_check_const_OPENSSL_STRING_lh_plain_type(ptr noundef %196)
  %198 = call ptr @OPENSSL_LH_delete(ptr noundef %195, ptr noundef %197)
  br label %199

199:                                              ; preds = %187, %157
  br label %153, !llvm.loop !46

200:                                              ; preds = %153
  br label %201

201:                                              ; preds = %200, %59
  store i32 0, ptr %3, align 4
  store i32 1, ptr %8, align 4
  br label %202

202:                                              ; preds = %201, %149
  call void @llvm.lifetime.end.p0(i64 8, ptr %7) #5
  call void @llvm.lifetime.end.p0(i64 4, ptr %6) #5
  %203 = load i32, ptr %3, align 4
  ret i32 %203
}