; Function Attrs: nounwind uwtable
define range(i32 0, 2) i32 @TXT_DB_insert(ptr noundef captures(none) %0, ptr noundef %1) local_unnamed_addr #0 {
  %3 = load i32, ptr %0, align 8, !tbaa !3
  %4 = icmp sgt i32 %3, 0
  br i1 %4, label %.lr.ph, label %._crit_edge

.lr.ph:                                           ; preds = %2
  %5 = getelementptr inbounds nuw i8, ptr %0, i64 16
  %6 = getelementptr inbounds nuw i8, ptr %0, i64 24
  br label %10

.preheader:                                       ; preds = %28
  %7 = icmp sgt i32 %29, 0
  br i1 %7, label %.lr.ph67, label %._crit_edge

.lr.ph67:                                         ; preds = %.preheader
  %8 = getelementptr inbounds nuw i8, ptr %0, i64 16
  %9 = getelementptr inbounds nuw i8, ptr %0, i64 24
  br label %32

10:                                               ; preds = %.lr.ph, %28
  %indvars.iv = phi i64 [ 0, %.lr.ph ], [ %indvars.iv.next, %28 ]
  %11 = load ptr, ptr %5, align 8, !tbaa !14
  %12 = getelementptr inbounds nuw ptr, ptr %11, i64 %indvars.iv
  %13 = load ptr, ptr %12, align 8, !tbaa !16
  %.not58 = icmp eq ptr %13, null
  br i1 %.not58, label %28, label %14

14:                                               ; preds = %10
  %15 = load ptr, ptr %6, align 8, !tbaa !15
  %16 = getelementptr inbounds nuw ptr, ptr %15, i64 %indvars.iv
  %17 = load ptr, ptr %16, align 8, !tbaa !18
  %.not59 = icmp eq ptr %17, null
  br i1 %.not59, label %21, label %18

18:                                               ; preds = %14
  %19 = tail call i32 %17(ptr noundef %1) #5
  %20 = icmp eq i32 %19, 0
  br i1 %20, label %28, label %._crit_edge81

._crit_edge81:                                    ; preds = %18
  %.pre = load ptr, ptr %5, align 8, !tbaa !14
  %.phi.trans.insert = getelementptr inbounds nuw ptr, ptr %.pre, i64 %indvars.iv
  %.pre82 = load ptr, ptr %.phi.trans.insert, align 8, !tbaa !16
  br label %21

21:                                               ; preds = %._crit_edge81, %14
  %22 = phi ptr [ %.pre82, %._crit_edge81 ], [ %13, %14 ]
  %23 = tail call ptr @OPENSSL_LH_retrieve(ptr noundef %22, ptr noundef %1) #5
  %.not60 = icmp eq ptr %23, null
  br i1 %.not60, label %28, label %24

24:                                               ; preds = %21
  %25 = getelementptr inbounds nuw i8, ptr %0, i64 32
  store i64 2, ptr %25, align 8, !tbaa !26
  %26 = getelementptr inbounds nuw i8, ptr %0, i64 40
  store i64 %indvars.iv, ptr %26, align 8, !tbaa !28
  %27 = getelementptr inbounds nuw i8, ptr %0, i64 56
  store ptr %23, ptr %27, align 8, !tbaa !33
  br label %.loopexit

28:                                               ; preds = %10, %21, %18
  %indvars.iv.next = add nuw nsw i64 %indvars.iv, 1
  %29 = load i32, ptr %0, align 8, !tbaa !3
  %30 = sext i32 %29 to i64
  %31 = icmp slt i64 %indvars.iv.next, %30
  br i1 %31, label %10, label %.preheader, !llvm.loop !34

32:                                               ; preds = %.lr.ph67, %51
  %indvars.iv75 = phi i64 [ 0, %.lr.ph67 ], [ %indvars.iv.next76, %51 ]
  %33 = load ptr, ptr %8, align 8, !tbaa !14
  %34 = getelementptr inbounds nuw ptr, ptr %33, i64 %indvars.iv75
  %35 = load ptr, ptr %34, align 8, !tbaa !16
  %.not54 = icmp eq ptr %35, null
  br i1 %.not54, label %51, label %36

36:                                               ; preds = %32
  %37 = load ptr, ptr %9, align 8, !tbaa !15
  %38 = getelementptr inbounds nuw ptr, ptr %37, i64 %indvars.iv75
  %39 = load ptr, ptr %38, align 8, !tbaa !18
  %.not55 = icmp eq ptr %39, null
  br i1 %.not55, label %43, label %40

40:                                               ; preds = %36
  %41 = tail call i32 %39(ptr noundef %1) #5
  %42 = icmp eq i32 %41, 0
  br i1 %42, label %51, label %._crit_edge83

._crit_edge83:                                    ; preds = %40
  %.pre84 = load ptr, ptr %8, align 8, !tbaa !14
  %.phi.trans.insert85 = getelementptr inbounds nuw ptr, ptr %.pre84, i64 %indvars.iv75
  %.pre86 = load ptr, ptr %.phi.trans.insert85, align 8, !tbaa !16
  br label %43

43:                                               ; preds = %._crit_edge83, %36
  %44 = phi ptr [ %.pre86, %._crit_edge83 ], [ %35, %36 ]
  %45 = tail call ptr @OPENSSL_LH_insert(ptr noundef %44, ptr noundef %1) #5
  %46 = load ptr, ptr %8, align 8, !tbaa !14
  %47 = getelementptr inbounds nuw ptr, ptr %46, i64 %indvars.iv75
  %48 = load ptr, ptr %47, align 8, !tbaa !16
  %49 = tail call ptr @OPENSSL_LH_retrieve(ptr noundef %48, ptr noundef %1) #5
  %50 = icmp eq ptr %49, null
  br i1 %50, label %.loopexit61.loopexit, label %51

51:                                               ; preds = %32, %43, %40
  %indvars.iv.next76 = add nuw nsw i64 %indvars.iv75, 1
  %52 = load i32, ptr %0, align 8, !tbaa !3
  %53 = sext i32 %52 to i64
  %54 = icmp slt i64 %indvars.iv.next76, %53
  br i1 %54, label %32, label %._crit_edge.loopexit, !llvm.loop !35

._crit_edge.loopexit:                             ; preds = %51
  %55 = trunc nuw nsw i64 %indvars.iv.next76 to i32
  br label %._crit_edge

._crit_edge:                                      ; preds = %2, %._crit_edge.loopexit, %.preheader
  %.1.lcssa = phi i32 [ 0, %.preheader ], [ %55, %._crit_edge.loopexit ], [ 0, %2 ]
  %56 = getelementptr inbounds nuw i8, ptr %0, i64 8
  %57 = load ptr, ptr %56, align 8, !tbaa !13
  %58 = tail call i32 @OPENSSL_sk_push(ptr noundef %57, ptr noundef %1) #5
  %.not = icmp eq i32 %58, 0
  br i1 %.not, label %.loopexit61, label %.loopexit

.loopexit61.loopexit:                             ; preds = %43
  %59 = trunc nuw nsw i64 %indvars.iv75 to i32
  br label %.loopexit61

.loopexit61:                                      ; preds = %.loopexit61.loopexit, %._crit_edge
  %.163 = phi i32 [ %.1.lcssa, %._crit_edge ], [ %59, %.loopexit61.loopexit ]
  %60 = getelementptr inbounds nuw i8, ptr %0, i64 32
  store i64 1, ptr %60, align 8, !tbaa !26
  %61 = icmp sgt i32 %.163, 0
  br i1 %61, label %.lr.ph69, label %.loopexit

.lr.ph69:                                         ; preds = %.loopexit61
  %62 = getelementptr inbounds nuw i8, ptr %0, i64 16
  %63 = getelementptr inbounds nuw i8, ptr %0, i64 24
  %64 = zext nneg i32 %.163 to i64
  br label %65

65:                                               ; preds = %.lr.ph69, %.backedge
  %indvars.iv78 = phi i64 [ %64, %.lr.ph69 ], [ %indvars.iv.next79, %.backedge ]
  %indvars.iv.next79 = add nsw i64 %indvars.iv78, -1
  %66 = load ptr, ptr %62, align 8, !tbaa !14
  %67 = getelementptr inbounds nuw ptr, ptr %66, i64 %indvars.iv.next79
  %68 = load ptr, ptr %67, align 8, !tbaa !16
  %.not56 = icmp eq ptr %68, null
  br i1 %.not56, label %.backedge, label %69

69:                                               ; preds = %65
  %70 = load ptr, ptr %63, align 8, !tbaa !15
  %71 = getelementptr inbounds nuw ptr, ptr %70, i64 %indvars.iv.next79
  %72 = load ptr, ptr %71, align 8, !tbaa !18
  %.not57 = icmp eq ptr %72, null
  br i1 %.not57, label %76, label %73

73:                                               ; preds = %69
  %74 = tail call i32 %72(ptr noundef %1) #5
  %75 = icmp eq i32 %74, 0
  br i1 %75, label %.backedge, label %._crit_edge87

._crit_edge87:                                    ; preds = %73
  %.pre88 = load ptr, ptr %62, align 8, !tbaa !14
  %.phi.trans.insert89 = getelementptr inbounds nuw ptr, ptr %.pre88, i64 %indvars.iv.next79
  %.pre90 = load ptr, ptr %.phi.trans.insert89, align 8, !tbaa !16
  br label %76

76:                                               ; preds = %._crit_edge87, %69
  %77 = phi ptr [ %.pre90, %._crit_edge87 ], [ %68, %69 ]
  %78 = tail call ptr @OPENSSL_LH_delete(ptr noundef %77, ptr noundef %1) #5
  br label %.backedge

.backedge:                                        ; preds = %65, %76, %73
  %79 = icmp samesign ugt i64 %indvars.iv78, 1
  br i1 %79, label %65, label %.loopexit, !llvm.loop !36

.loopexit:                                        ; preds = %.backedge, %.loopexit61, %24, %._crit_edge
  %.0 = phi i32 [ 1, %._crit_edge ], [ 0, %24 ], [ 0, %.loopexit61 ], [ 0, %.backedge ]
  ret i32 %.0
}